target datalayout = "e-m:e-p270:32:32-p271:32:32-p272:64:64-i64:64-i128:128-f80:128-n8:16:32:64-S128"
target triple = "x86_64-pc-linux-gnu"

%struct.XML_Parser_Struct = type { i32, ptr, ptr, ptr, ptr, ptr, ptr, ptr, ptr, ptr, ptr, ptr, ptr, ptr, ptr }

@.str.8 = private unnamed_addr constant [10 x i8] c"<?%s %s?>\00", align 1

; Function Attrs: nounwind uwtable
define internal void @pi_handler(ptr noundef %0, ptr noundef %1, ptr noundef %2) #0 {
  %4 = alloca ptr, align 8
  %5 = alloca ptr, align 8
  %6 = alloca ptr, align 8
  %7 = alloca ptr, align 8
  %8 = alloca ptr, align 8
  %9 = alloca i32, align 4
  store ptr %0, ptr %4, align 8, !tbaa !53
  store ptr %1, ptr %5, align 8, !tbaa !4
  store ptr %2, ptr %6, align 8, !tbaa !4
  call void @llvm.lifetime.start.p0(i64 8, ptr %7) #8
  %10 = load ptr, ptr %4, align 8, !tbaa !53
  store ptr %10, ptr %7, align 8, !tbaa !11
  %11 = load ptr, ptr %7, align 8, !tbaa !11
  %12 = getelementptr inbounds nuw %struct.XML_Parser_Struct, ptr %11, i32 0, i32 7
  %13 = load ptr, ptr %12, align 8, !tbaa !58
  %14 = icmp eq ptr %13, null
  br i1 %14, label %15, label %36

15:                                               ; preds = %3
  %16 = load ptr, ptr %7, align 8, !tbaa !11
  %17 = getelementptr inbounds nuw %struct.XML_Parser_Struct, ptr %16, i32 0, i32 9
  %18 = load ptr, ptr %17, align 8, !tbaa !60
  %19 = icmp ne ptr %18, null
  br i1 %19, label %20, label %35

20:                                               ; preds = %15
  call void @llvm.lifetime.start.p0(i64 8, ptr %8) #8
  %21 = load ptr, ptr %5, align 8, !tbaa !4
  %22 = load ptr, ptr %6, align 8, !tbaa !4
  %23 = call i64 (ptr, i64, ptr, ...) @zend_spprintf(ptr noundef %8, i64 noundef 0, ptr noundef @.str.8, ptr noundef %21, ptr noundef %22)
  %24 = load ptr, ptr %7, align 8, !tbaa !11
  %25 = getelementptr inbounds nuw %struct.XML_Parser_Struct, ptr %24, i32 0, i32 9
  %26 = load ptr, ptr %25, align 8, !tbaa !60
  %27 = load ptr, ptr %7, align 8, !tbaa !11
  %28 = getelementptr inbounds nuw %struct.XML_Parser_Struct, ptr %27, i32 0, i32 2
  %29 = load ptr, ptr %28, align 8, !tbaa !54
  %30 = load ptr, ptr %8, align 8, !tbaa !4
  %31 = load ptr, ptr %8, align 8, !tbaa !4
  %32 = call i64 @strlen(ptr noundef %31) #9
  %33 = trunc i64 %32 to i32
  call void %26(ptr noundef %29, ptr noundef %30, i32 noundef %33)
  %34 = load ptr, ptr %8, align 8, !tbaa !4
  call void @_efree(ptr noundef %34)
  call void @llvm.lifetime.end.p0(i64 8, ptr %8) #8
  br label %35

35:                                               ; preds = %20, %15
  store i32 1, ptr %9, align 4
  br label %45

36:                                               ; preds = %3
  %37 = load ptr, ptr %7, align 8, !tbaa !11
  %38 = getelementptr inbounds nuw %struct.XML_Parser_Struct, ptr %37, i32 0, i32 7
  %39 = load ptr, ptr %38, align 8, !tbaa !58
  %40 = load ptr, ptr %7, align 8, !tbaa !11
  %41 = getelementptr inbounds nuw %struct.XML_Parser_Struct, ptr %40, i32 0, i32 2
  %42 = load ptr, ptr %41, align 8, !tbaa !54
  %43 = load ptr, ptr %5, align 8, !tbaa !4
  %44 = load ptr, ptr %6, align 8, !tbaa !4
  call void %39(ptr noundef %42, ptr noundef %43, ptr noundef %44)
  store i32 0, ptr %9, align 4
  br label %45

45:                                               ; preds = %36, %35
  call void @llvm.lifetime.end.p0(i64 8, ptr %7) #8
  %46 = load i32, ptr %9, align 4
  switch i32 %46, label %48 [
    i32 0, label %47
    i32 1, label %47
  ]

47:                                               ; preds = %45, %45
  ret void

48:                                               ; preds = %45
  unreachable
}