; Function Attrs: nounwind uwtable
define internal void @pi_handler(ptr noundef readonly captures(none) %0, ptr noundef %1, ptr noundef %2) #0 {
  %4 = alloca ptr, align 8
  %5 = getelementptr inbounds nuw i8, ptr %0, i64 56
  %6 = load ptr, ptr %5, align 8, !tbaa !51
  %7 = icmp eq ptr %6, null
  br i1 %7, label %8, label %20

8:                                                ; preds = %3
  %9 = getelementptr inbounds nuw i8, ptr %0, i64 72
  %10 = load ptr, ptr %9, align 8, !tbaa !53
  %.not = icmp eq ptr %10, null
  br i1 %.not, label %23, label %11

11:                                               ; preds = %8
  call void @llvm.lifetime.start.p0(i64 8, ptr nonnull %4) #11
  %12 = call i64 (ptr, i64, ptr, ...) @zend_spprintf(ptr noundef nonnull %4, i64 noundef 0, ptr noundef nonnull @.str.8, ptr noundef %1, ptr noundef %2) #11
  %13 = load ptr, ptr %9, align 8, !tbaa !53
  %14 = getelementptr inbounds nuw i8, ptr %0, i64 16
  %15 = load ptr, ptr %14, align 8, !tbaa !47
  %16 = load ptr, ptr %4, align 8, !tbaa !61
  %17 = call i64 @strlen(ptr noundef nonnull dereferenceable(1) %16) #12
  %18 = trunc i64 %17 to i32
  call void %13(ptr noundef %15, ptr noundef nonnull %16, i32 noundef %18) #11
  %19 = load ptr, ptr %4, align 8, !tbaa !61
  call void @_efree(ptr noundef %19) #11
  call void @llvm.lifetime.end.p0(i64 8, ptr nonnull %4) #11
  br label %23

20:                                               ; preds = %3
  %21 = getelementptr inbounds nuw i8, ptr %0, i64 16
  %22 = load ptr, ptr %21, align 8, !tbaa !47
  tail call void %6(ptr noundef %22, ptr noundef %1, ptr noundef %2) #11
  br label %23

23:                                               ; preds = %8, %11, %20
  ret void
}